; ModuleID = '30/3114.c'
source_filename = "30/3114.c"
target datalayout = "e-m:e-p270:32:32-p271:32:32-p272:64:64-i64:64-f80:128-n8:16:32:64-S128"
target triple = "x86_64-pc-linux-gnu"

@.str = private unnamed_addr constant [3 x i8] c"%d\00", align 1

; Function Attrs: noinline nounwind uwtable
define dso_local i32 @main() #0 {
  %1 = alloca i32, align 4
  %2 = alloca i32, align 4
  %3 = alloca i32, align 4
  %4 = alloca i32, align 4
  store i32 0, i32* %1, align 4
  %5 = call i32 (i8*, ...) @__isoc99_scanf(i8* getelementptr inbounds ([3 x i8], [3 x i8]* @.str, i64 0, i64 0), i32* %2)
  store i32 0, i32* %3, align 4
  store i32 1, i32* %4, align 4
  br label %6

6:                                                ; preds = %36, %0
  %7 = load i32, i32* %4, align 4
  %8 = load i32, i32* %2, align 4
  %9 = icmp sle i32 %7, %8
  br i1 %9, label %10, label %39

10:                                               ; preds = %6
  %11 = load i32, i32* %4, align 4
  %12 = srem i32 %11, 7
  %13 = icmp ne i32 %12, 0
  br i1 %13, label %14, label %35

14:                                               ; preds = %10
  %15 = load i32, i32* %4, align 4
  %16 = sub nsw i32 %15, 7
  %17 = srem i32 %16, 10
  %18 = icmp ne i32 %17, 0
  br i1 %18, label %19, label %34

19:                                               ; preds = %14
  %20 = load i32, i32* %4, align 4
  %21 = sub nsw i32 %20, 70
  %22 = icmp slt i32 %21, 0
  br i1 %22, label %27, label %23

23:                                               ; preds = %19
  %24 = load i32, i32* %4, align 4
  %25 = sub nsw i32 %24, 70
  %26 = icmp sgt i32 %25, 9
  br i1 %26, label %27, label %33

27:                                               ; preds = %23, %19
  %28 = load i32, i32* %4, align 4
  %29 = load i32, i32* %4, align 4
  %30 = mul nsw i32 %28, %29
  %31 = load i32, i32* %3, align 4
  %32 = add nsw i32 %31, %30
  store i32 %32, i32* %3, align 4
  br label %33

33:                                               ; preds = %27, %23
  br label %34

34:                                               ; preds = %33, %14
  br label %35

35:                                               ; preds = %34, %10
  br label %36

36:                                               ; preds = %35
  %37 = load i32, i32* %4, align 4
  %38 = add nsw i32 %37, 1
  store i32 %38, i32* %4, align 4
  br label %6

39:                                               ; preds = %6
  %40 = load i32, i32* %3, align 4
  %41 = call i32 (i8*, ...) @printf(i8* getelementptr inbounds ([3 x i8], [3 x i8]* @.str, i64 0, i64 0), i32 %40)
  ret i32 0
}

declare dso_local i32 @__isoc99_scanf(i8*, ...) #1

declare dso_local i32 @printf(i8*, ...) #1


!llvm.module.flags = !{!0}
!llvm.ident = !{!1}

!0 = !{i32 1, !"wchar_size", i32 4}
!1 = !{!"clang version 10.0.0-4ubuntu1 "}
